target datalayout = "e-m:e-p270:32:32-p271:32:32-p272:64:64-i64:64-i128:128-f80:128-n8:16:32:64-S128"
target triple = "x86_64-pc-linux-gnu"

@.str.33 = private unnamed_addr constant [19 x i8] c"error opening '%s'\00", align 1
@.str.34 = private unnamed_addr constant [34 x i8] c"too large to be a .git file: '%s'\00", align 1
@.str.35 = private unnamed_addr constant [17 x i8] c"error reading %s\00", align 1
@.str.36 = private unnamed_addr constant [27 x i8] c"invalid gitfile format: %s\00", align 1
@.str.37 = private unnamed_addr constant [23 x i8] c"no path in gitfile: %s\00", align 1
@.str.38 = private unnamed_addr constant [25 x i8] c"not a git repository: %s\00", align 1
@.str.39 = private unnamed_addr constant [8 x i8] c"setup.c\00", align 1
@.str.40 = private unnamed_addr constant [19 x i8] c"unknown error code\00", align 1

; Function Attrs: nounwind uwtable
define dso_local void @read_gitfile_error_die(i32 noundef %0, ptr noundef %1, ptr noundef %2) #0 {
  %4 = alloca i32, align 4
  %5 = alloca ptr, align 8
  %6 = alloca ptr, align 8
  store i32 %0, ptr %4, align 4, !tbaa !9
  store ptr %1, ptr %5, align 8, !tbaa !4
  store ptr %2, ptr %6, align 8, !tbaa !4
  %7 = load i32, ptr %4, align 4, !tbaa !9
  switch i32 %7, label %27 [
    i32 1, label %8
    i32 2, label %8
    i32 3, label %9
    i32 8, label %12
    i32 4, label %15
    i32 5, label %18
    i32 6, label %21
    i32 7, label %24
  ]

8:                                                ; preds = %3, %3
  br label %28

9:                                                ; preds = %3
  %10 = call ptr @_(ptr noundef @.str.33)
  %11 = load ptr, ptr %5, align 8, !tbaa !4
  call void (ptr, ...) @die_errno(ptr noundef %10, ptr noundef %11) #15
  unreachable

12:                                               ; preds = %3
  %13 = call ptr @_(ptr noundef @.str.34)
  %14 = load ptr, ptr %5, align 8, !tbaa !4
  call void (ptr, ...) @die(ptr noundef %13, ptr noundef %14) #15
  unreachable

15:                                               ; preds = %3
  %16 = call ptr @_(ptr noundef @.str.35)
  %17 = load ptr, ptr %5, align 8, !tbaa !4
  call void (ptr, ...) @die(ptr noundef %16, ptr noundef %17) #15
  unreachable

18:                                               ; preds = %3
  %19 = call ptr @_(ptr noundef @.str.36)
  %20 = load ptr, ptr %5, align 8, !tbaa !4
  call void (ptr, ...) @die(ptr noundef %19, ptr noundef %20) #15
  unreachable

21:                                               ; preds = %3
  %22 = call ptr @_(ptr noundef @.str.37)
  %23 = load ptr, ptr %5, align 8, !tbaa !4
  call void (ptr, ...) @die(ptr noundef %22, ptr noundef %23) #15
  unreachable

24:                                               ; preds = %3
  %25 = call ptr @_(ptr noundef @.str.38)
  %26 = load ptr, ptr %6, align 8, !tbaa !4
  call void (ptr, ...) @die(ptr noundef %25, ptr noundef %26) #15
  unreachable

27:                                               ; preds = %3
  call void (ptr, i32, ptr, ...) @BUG_fl(ptr noundef @.str.39, i32 noundef 912, ptr noundef @.str.40) #15
  unreachable

28:                                               ; preds = %8
  ret void
}