; Function Attrs: nounwind uwtable
define dso_local void @read_gitfile_error_die(i32 noundef %0, ptr noundef %1, ptr noundef %2) local_unnamed_addr #0 {
  switch i32 %0, label %16 [
    i32 1, label %17
    i32 2, label %17
    i32 3, label %4
    i32 8, label %6
    i32 4, label %8
    i32 5, label %10
    i32 6, label %12
    i32 7, label %14
  ]

4:                                                ; preds = %3
  %5 = tail call fastcc ptr @_(ptr noundef nonnull @.str.33)
  tail call void (ptr, ...) @die_errno(ptr noundef %5, ptr noundef %1) #26
  unreachable

6:                                                ; preds = %3
  %7 = tail call fastcc ptr @_(ptr noundef nonnull @.str.34)
  tail call void (ptr, ...) @die(ptr noundef %7, ptr noundef %1) #26
  unreachable

8:                                                ; preds = %3
  %9 = tail call fastcc ptr @_(ptr noundef nonnull @.str.35)
  tail call void (ptr, ...) @die(ptr noundef %9, ptr noundef %1) #26
  unreachable

10:                                               ; preds = %3
  %11 = tail call fastcc ptr @_(ptr noundef nonnull @.str.36)
  tail call void (ptr, ...) @die(ptr noundef %11, ptr noundef %1) #26
  unreachable

12:                                               ; preds = %3
  %13 = tail call fastcc ptr @_(ptr noundef nonnull @.str.37)
  tail call void (ptr, ...) @die(ptr noundef %13, ptr noundef %1) #26
  unreachable

14:                                               ; preds = %3
  %15 = tail call fastcc ptr @_(ptr noundef nonnull @.str.38)
  tail call void (ptr, ...) @die(ptr noundef %15, ptr noundef %2) #26
  unreachable

16:                                               ; preds = %3
  tail call void (ptr, i32, ptr, ...) @BUG_fl(ptr noundef nonnull @.str.39, i32 noundef 912, ptr noundef nonnull @.str.40) #26
  unreachable

17:                                               ; preds = %3, %3
  ret void
}